target datalayout = "e-m:e-p270:32:32-p271:32:32-p272:64:64-i64:64-i128:128-f80:128-n8:16:32:64-S128"
target triple = "x86_64-pc-linux-gnu"

%"struct.clang::RISCV::LMULType" = type { i32 }
%"class.std::__cxx11::basic_string" = type { %"struct.std::__cxx11::basic_string<char>::_Alloc_hider", i64, %union.anon }
%"struct.std::__cxx11::basic_string<char>::_Alloc_hider" = type { ptr }
%union.anon = type { i64, [8 x i8] }
%"class.std::optional" = type { %"struct.std::_Optional_base" }
%"struct.std::_Optional_base" = type { %"struct.std::_Optional_payload" }
%"struct.std::_Optional_payload" = type { %"struct.std::_Optional_payload_base.base", [3 x i8] }
%"struct.std::_Optional_payload_base.base" = type <{ %"union.std::_Optional_payload_base<unsigned int>::_Storage", i8 }>
%"union.std::_Optional_payload_base<unsigned int>::_Storage" = type { i32 }
%"class.clang::RISCV::RVVType" = type { i8, i8, %"struct.clang::RISCV::LMULType", i8, i8, i8, i32, %"class.std::optional", i8, i8, i32, %"class.std::__cxx11::basic_string", %"class.std::__cxx11::basic_string", %"class.std::__cxx11::basic_string", %"class.std::__cxx11::basic_string" }

; Function Attrs: mustprogress nounwind uwtable
define dso_local void @_ZN5clang5RISCV7RVVType14applyBasicTypeEv(ptr noundef nonnull align 8 dereferenceable(160) %0) #0 align 2 {
  %2 = alloca ptr, align 8
  store ptr %0, ptr %2, align 8
  %3 = load ptr, ptr %2, align 8
  %4 = getelementptr inbounds nuw %"class.clang::RISCV::RVVType", ptr %3, i32 0, i32 0
  %5 = load i8, ptr %4, align 8
  switch i8 %5, label %30 [
    i8 1, label %6
    i8 2, label %9
    i8 4, label %12
    i8 8, label %15
    i8 32, label %18
    i8 64, label %21
    i8 -128, label %24
    i8 16, label %27
  ]

6:                                                ; preds = %1
  %7 = getelementptr inbounds nuw %"class.clang::RISCV::RVVType", ptr %3, i32 0, i32 6
  store i32 8, ptr %7, align 4
  %8 = getelementptr inbounds nuw %"class.clang::RISCV::RVVType", ptr %3, i32 0, i32 1
  store i8 6, ptr %8, align 1
  br label %31

9:                                                ; preds = %1
  %10 = getelementptr inbounds nuw %"class.clang::RISCV::RVVType", ptr %3, i32 0, i32 6
  store i32 16, ptr %10, align 4
  %11 = getelementptr inbounds nuw %"class.clang::RISCV::RVVType", ptr %3, i32 0, i32 1
  store i8 6, ptr %11, align 1
  br label %31

12:                                               ; preds = %1
  %13 = getelementptr inbounds nuw %"class.clang::RISCV::RVVType", ptr %3, i32 0, i32 6
  store i32 32, ptr %13, align 4
  %14 = getelementptr inbounds nuw %"class.clang::RISCV::RVVType", ptr %3, i32 0, i32 1
  store i8 6, ptr %14, align 1
  br label %31

15:                                               ; preds = %1
  %16 = getelementptr inbounds nuw %"class.clang::RISCV::RVVType", ptr %3, i32 0, i32 6
  store i32 64, ptr %16, align 4
  %17 = getelementptr inbounds nuw %"class.clang::RISCV::RVVType", ptr %3, i32 0, i32 1
  store i8 6, ptr %17, align 1
  br label %31

18:                                               ; preds = %1
  %19 = getelementptr inbounds nuw %"class.clang::RISCV::RVVType", ptr %3, i32 0, i32 6
  store i32 16, ptr %19, align 4
  %20 = getelementptr inbounds nuw %"class.clang::RISCV::RVVType", ptr %3, i32 0, i32 1
  store i8 8, ptr %20, align 1
  br label %31

21:                                               ; preds = %1
  %22 = getelementptr inbounds nuw %"class.clang::RISCV::RVVType", ptr %3, i32 0, i32 6
  store i32 32, ptr %22, align 4
  %23 = getelementptr inbounds nuw %"class.clang::RISCV::RVVType", ptr %3, i32 0, i32 1
  store i8 8, ptr %23, align 1
  br label %31

24:                                               ; preds = %1
  %25 = getelementptr inbounds nuw %"class.clang::RISCV::RVVType", ptr %3, i32 0, i32 6
  store i32 64, ptr %25, align 4
  %26 = getelementptr inbounds nuw %"class.clang::RISCV::RVVType", ptr %3, i32 0, i32 1
  store i8 8, ptr %26, align 1
  br label %31

27:                                               ; preds = %1
  %28 = getelementptr inbounds nuw %"class.clang::RISCV::RVVType", ptr %3, i32 0, i32 6
  store i32 16, ptr %28, align 4
  %29 = getelementptr inbounds nuw %"class.clang::RISCV::RVVType", ptr %3, i32 0, i32 1
  store i8 9, ptr %29, align 1
  br label %31

30:                                               ; preds = %1
  unreachable

31:                                               ; preds = %27, %24, %21, %18, %15, %12, %9, %6
  ret void
}