; Function Attrs: mustprogress nofree norecurse nosync nounwind willreturn memory(argmem: readwrite) uwtable
define dso_local void @_ZN5clang5RISCV7RVVType14applyBasicTypeEv(ptr nocapture noundef nonnull align 8 dereferenceable(160) %0) local_unnamed_addr #4 align 2 {
  %2 = load i8, ptr %0, align 8
  switch i8 %2, label %10 [
    i8 1, label %11
    i8 2, label %3
    i8 4, label %4
    i8 8, label %5
    i8 32, label %6
    i8 64, label %7
    i8 -128, label %8
    i8 16, label %9
  ]

3:                                                ; preds = %1
  br label %11

4:                                                ; preds = %1
  br label %11

5:                                                ; preds = %1
  br label %11

6:                                                ; preds = %1
  br label %11

7:                                                ; preds = %1
  br label %11

8:                                                ; preds = %1
  br label %11

9:                                                ; preds = %1
  br label %11

10:                                               ; preds = %1
  unreachable

11:                                               ; preds = %1, %9, %8, %7, %6, %5, %4, %3
  %.sink1 = phi i32 [ 16, %9 ], [ 64, %8 ], [ 32, %7 ], [ 16, %6 ], [ 64, %5 ], [ 32, %4 ], [ 16, %3 ], [ 8, %1 ]
  %.sink = phi i8 [ 9, %9 ], [ 8, %8 ], [ 8, %7 ], [ 8, %6 ], [ 6, %5 ], [ 6, %4 ], [ 6, %3 ], [ 6, %1 ]
  %12 = getelementptr inbounds nuw i8, ptr %0, i64 1
  %13 = getelementptr inbounds nuw i8, ptr %0, i64 12
  store i32 %.sink1, ptr %13, align 4
  store i8 %.sink, ptr %12, align 1
  ret void
}